; Function Attrs: mustprogress uwtable
define void @_ZN32pxrInternal_v0_24__pxrReserved__7TfDebug26GetDebugSymbolDescriptionsB5cxx11Ev(ptr dead_on_unwind noalias writable sret(%"class.std::__cxx11::basic_string") align 8 %0) local_unnamed_addr #0 align 2 {
  %2 = load atomic i64, ptr @_ZN32pxrInternal_v0_24__pxrReserved__11TfSingletonINS_22Tf_DebugSymbolRegistryEE9_instanceE seq_cst, align 8
  %.0.i.i.i = inttoptr i64 %2 to ptr
  %.not.i.i = icmp eq i64 %2, 0
  br i1 %.not.i.i, label %3, label %_ZN32pxrInternal_v0_24__pxrReserved__22Tf_DebugSymbolRegistry12_GetInstanceEv.exit

3:                                                ; preds = %1
  %4 = tail call noundef ptr @_ZN32pxrInternal_v0_24__pxrReserved__11TfSingletonINS_22Tf_DebugSymbolRegistryEE15_CreateInstanceERSt6atomicIPS1_E(ptr noundef nonnull align 8 dereferenceable(8) @_ZN32pxrInternal_v0_24__pxrReserved__11TfSingletonINS_22Tf_DebugSymbolRegistryEE9_instanceE)
  br label %_ZN32pxrInternal_v0_24__pxrReserved__22Tf_DebugSymbolRegistry12_GetInstanceEv.exit

_ZN32pxrInternal_v0_24__pxrReserved__22Tf_DebugSymbolRegistry12_GetInstanceEv.exit: ; preds = %1, %3
  %.0.i.i = phi ptr [ %.0.i.i.i, %1 ], [ %4, %3 ]
  tail call void @_ZNK32pxrInternal_v0_24__pxrReserved__22Tf_DebugSymbolRegistry16_GetDescriptionsB5cxx11Ev(ptr dead_on_unwind writable sret(%"class.std::__cxx11::basic_string") align 8 %0, ptr noundef nonnull align 8 dereferenceable(176) %.0.i.i)
  ret void
}